target datalayout = "e-m:e-p270:32:32-p271:32:32-p272:64:64-i64:64-i128:128-f80:128-n8:16:32:64-S128"
target triple = "x86_64-pc-linux-gnu"

%struct.evp_test_st = type { %struct.stanza_st, ptr, i32, ptr, ptr, ptr, ptr, ptr, ptr, i32 }
%struct.stanza_st = type { ptr, ptr, i32, i32, i32, i32, i32, i32, [150 x %struct.pair_st], ptr, [32768 x i8] }
%struct.pair_st = type { ptr, ptr }
%struct.keypair_test_data_st = type { ptr, ptr }

@.str.29 = private unnamed_addr constant [27 x i8] c"../openssl/test/evp_test.c\00", align 1
@.str.321 = private unnamed_addr constant [22 x i8] c"KEYPAIR_TYPE_MISMATCH\00", align 1
@.str.322 = private unnamed_addr constant [17 x i8] c"KEYPAIR_MISMATCH\00", align 1
@.str.323 = private unnamed_addr constant [27 x i8] c"UNSUPPORTED_KEY_COMPARISON\00", align 1
@.str.324 = private unnamed_addr constant [35 x i8] c"Unexpected error in key comparison\00", align 1

; Function Attrs: nounwind uwtable
define internal i32 @keypair_test_run(ptr noundef %0) #0 {
  %2 = alloca ptr, align 8
  %3 = alloca i32, align 4
  %4 = alloca ptr, align 8
  store ptr %0, ptr %2, align 8, !tbaa !15
  call void @llvm.lifetime.start.p0(i64 4, ptr %3) #10
  store i32 0, ptr %3, align 4, !tbaa !9
  call void @llvm.lifetime.start.p0(i64 8, ptr %4) #10
  %5 = load ptr, ptr %2, align 8, !tbaa !15
  %6 = getelementptr inbounds nuw %struct.evp_test_st, ptr %5, i32 0, i32 8
  %7 = load ptr, ptr %6, align 8, !tbaa !66
  store ptr %7, ptr %4, align 8, !tbaa !262
  %8 = load ptr, ptr %4, align 8, !tbaa !262
  %9 = getelementptr inbounds nuw %struct.keypair_test_data_st, ptr %8, i32 0, i32 0
  %10 = load ptr, ptr %9, align 8, !tbaa !264
  %11 = icmp eq ptr %10, null
  br i1 %11, label %17, label %12

12:                                               ; preds = %1
  %13 = load ptr, ptr %4, align 8, !tbaa !262
  %14 = getelementptr inbounds nuw %struct.keypair_test_data_st, ptr %13, i32 0, i32 1
  %15 = load ptr, ptr %14, align 8, !tbaa !266
  %16 = icmp eq ptr %15, null
  br i1 %16, label %17, label %20

17:                                               ; preds = %12, %1
  %18 = load ptr, ptr %2, align 8, !tbaa !15
  %19 = getelementptr inbounds nuw %struct.evp_test_st, ptr %18, i32 0, i32 4
  store ptr @.str.321, ptr %19, align 8, !tbaa !63
  store i32 1, ptr %3, align 4, !tbaa !9
  br label %54

20:                                               ; preds = %12
  %21 = load ptr, ptr %4, align 8, !tbaa !262
  %22 = getelementptr inbounds nuw %struct.keypair_test_data_st, ptr %21, i32 0, i32 0
  %23 = load ptr, ptr %22, align 8, !tbaa !264
  %24 = load ptr, ptr %4, align 8, !tbaa !262
  %25 = getelementptr inbounds nuw %struct.keypair_test_data_st, ptr %24, i32 0, i32 1
  %26 = load ptr, ptr %25, align 8, !tbaa !266
  %27 = call i32 @EVP_PKEY_eq(ptr noundef %23, ptr noundef %26)
  store i32 %27, ptr %3, align 4, !tbaa !9
  %28 = icmp ne i32 %27, 1
  br i1 %28, label %29, label %51

29:                                               ; preds = %20
  %30 = load i32, ptr %3, align 4, !tbaa !9
  %31 = icmp eq i32 0, %30
  br i1 %31, label %32, label %35

32:                                               ; preds = %29
  %33 = load ptr, ptr %2, align 8, !tbaa !15
  %34 = getelementptr inbounds nuw %struct.evp_test_st, ptr %33, i32 0, i32 4
  store ptr @.str.322, ptr %34, align 8, !tbaa !63
  br label %50

35:                                               ; preds = %29
  %36 = load i32, ptr %3, align 4, !tbaa !9
  %37 = icmp eq i32 -1, %36
  br i1 %37, label %38, label %41

38:                                               ; preds = %35
  %39 = load ptr, ptr %2, align 8, !tbaa !15
  %40 = getelementptr inbounds nuw %struct.evp_test_st, ptr %39, i32 0, i32 4
  store ptr @.str.321, ptr %40, align 8, !tbaa !63
  br label %49

41:                                               ; preds = %35
  %42 = load i32, ptr %3, align 4, !tbaa !9
  %43 = icmp eq i32 -2, %42
  br i1 %43, label %44, label %47

44:                                               ; preds = %41
  %45 = load ptr, ptr %2, align 8, !tbaa !15
  %46 = getelementptr inbounds nuw %struct.evp_test_st, ptr %45, i32 0, i32 4
  store ptr @.str.323, ptr %46, align 8, !tbaa !63
  br label %48

47:                                               ; preds = %41
  call void (ptr, i32, ptr, ...) @test_error(ptr noundef @.str.29, i32 noundef 4142, ptr noundef @.str.324)
  store i32 0, ptr %3, align 4, !tbaa !9
  br label %54

48:                                               ; preds = %44
  br label %49

49:                                               ; preds = %48, %38
  br label %50

50:                                               ; preds = %49, %32
  store i32 1, ptr %3, align 4, !tbaa !9
  br label %54

51:                                               ; preds = %20
  store i32 1, ptr %3, align 4, !tbaa !9
  %52 = load ptr, ptr %2, align 8, !tbaa !15
  %53 = getelementptr inbounds nuw %struct.evp_test_st, ptr %52, i32 0, i32 4
  store ptr null, ptr %53, align 8, !tbaa !63
  br label %54

54:                                               ; preds = %51, %50, %47, %17
  %55 = load i32, ptr %3, align 4, !tbaa !9
  call void @llvm.lifetime.end.p0(i64 8, ptr %4) #10
  call void @llvm.lifetime.end.p0(i64 4, ptr %3) #10
  ret i32 %55
}