; Function Attrs: nounwind uwtable
define internal range(i32 0, 2) i32 @keypair_test_run(ptr noundef captures(none) %0) #1 {
  %2 = getelementptr inbounds nuw i8, ptr %0, i64 35272
  %3 = load ptr, ptr %2, align 8, !tbaa !20
  %4 = load ptr, ptr %3, align 8, !tbaa !211
  %5 = icmp eq ptr %4, null
  br i1 %5, label %10, label %6

6:                                                ; preds = %1
  %7 = getelementptr inbounds nuw i8, ptr %3, i64 8
  %8 = load ptr, ptr %7, align 8, !tbaa !213
  %9 = icmp eq ptr %8, null
  br i1 %9, label %10, label %12

10:                                               ; preds = %6, %1
  %11 = getelementptr inbounds nuw i8, ptr %0, i64 35240
  store ptr @.str.321, ptr %11, align 8, !tbaa !64
  br label %23

12:                                               ; preds = %6
  %13 = tail call i32 @EVP_PKEY_eq(ptr noundef nonnull %4, ptr noundef nonnull %8) #10
  switch i32 %13, label %20 [
    i32 1, label %21
    i32 0, label %14
    i32 -1, label %16
    i32 -2, label %18
  ]

14:                                               ; preds = %12
  %15 = getelementptr inbounds nuw i8, ptr %0, i64 35240
  store ptr @.str.322, ptr %15, align 8, !tbaa !64
  br label %23

16:                                               ; preds = %12
  %17 = getelementptr inbounds nuw i8, ptr %0, i64 35240
  store ptr @.str.321, ptr %17, align 8, !tbaa !64
  br label %23

18:                                               ; preds = %12
  %19 = getelementptr inbounds nuw i8, ptr %0, i64 35240
  store ptr @.str.323, ptr %19, align 8, !tbaa !64
  br label %23

20:                                               ; preds = %12
  tail call void (ptr, i32, ptr, ...) @test_error(ptr noundef nonnull @.str.29, i32 noundef 4142, ptr noundef nonnull @.str.324) #10
  br label %23

21:                                               ; preds = %12
  %22 = getelementptr inbounds nuw i8, ptr %0, i64 35240
  store ptr null, ptr %22, align 8, !tbaa !64
  br label %23

23:                                               ; preds = %14, %18, %16, %21, %20, %10
  %.0 = phi i32 [ 1, %10 ], [ 0, %20 ], [ 1, %21 ], [ 1, %16 ], [ 1, %18 ], [ 1, %14 ]
  ret i32 %.0
}